; Function Attrs: mustprogress uwtable
define void @_ZNK2cv4UMat9convertToERKNS_12_OutputArrayEidd(ptr noundef nonnull align 8 dereferenceable(80) %0, ptr noundef nonnull align 8 dereferenceable(24) %1, i32 noundef %2, double noundef %3, double noundef %4) local_unnamed_addr #0 align 2 personality ptr @__gxx_personality_v0 {
  %6 = alloca %"class.cv::utils::trace::details::Region", align 8
  %7 = alloca %"class.cv::UMat", align 8
  %8 = alloca %"class.cv::Mat", align 8
  call void @_ZN2cv5utils5trace7details6RegionC1ERKNS3_21LocationStaticStorageE(ptr noundef nonnull align 8 dereferenceable(12) %6, ptr noundef nonnull align 8 dereferenceable(32) @_ZZNK2cv4UMat9convertToERKNS_12_OutputArrayEiddE25__cv_trace_location_fn307)
  %9 = invoke noundef zeroext i1 @_ZNK2cv4UMat5emptyEv(ptr noundef nonnull align 8 dereferenceable(80) %0)
          to label %10 unwind label %12

10:                                               ; preds = %5
  br i1 %9, label %11, label %14

11:                                               ; preds = %10
  invoke void @_ZNK2cv12_OutputArray7releaseEv(ptr noundef nonnull align 8 dereferenceable(24) %1)
          to label %18 unwind label %12

12:                                               ; preds = %14, %11, %5
  %13 = landingpad { ptr, i32 }
          cleanup
  br label %30

14:                                               ; preds = %10
  invoke void @_ZN2cv4UMatC1ERKS0_(ptr noundef nonnull align 8 dereferenceable(80) %7, ptr noundef nonnull align 8 dereferenceable(80) %0)
          to label %15 unwind label %12

15:                                               ; preds = %14
  invoke void @_ZNK2cv4UMat6getMatENS_10AccessFlagE(ptr dead_on_unwind nonnull writable sret(%"class.cv::Mat") align 8 %8, ptr noundef nonnull align 8 dereferenceable(80) %0, i32 noundef 16777216)
          to label %16 unwind label %25

16:                                               ; preds = %15
  invoke void @_ZNK2cv3Mat9convertToERKNS_12_OutputArrayEidd(ptr noundef nonnull align 8 dereferenceable(96) %8, ptr noundef nonnull align 8 dereferenceable(24) %1, i32 noundef %2, double noundef %3, double noundef %4)
          to label %17 unwind label %27

17:                                               ; preds = %16
  call void @_ZN2cv3MatD1Ev(ptr noundef nonnull align 8 dereferenceable(96) %8) #15
  call void @_ZN2cv4UMatD1Ev(ptr noundef nonnull align 8 dereferenceable(80) %7) #15
  br label %18

18:                                               ; preds = %11, %17
  %19 = getelementptr inbounds i8, ptr %6, i64 8
  %20 = load i32, ptr %19, align 8
  %.not.i = icmp eq i32 %20, 0
  br i1 %.not.i, label %_ZN2cv5utils5trace7details6RegionD2Ev.exit, label %21

21:                                               ; preds = %18
  invoke void @_ZN2cv5utils5trace7details6Region7destroyEv(ptr noundef nonnull align 8 dereferenceable(12) %6)
          to label %_ZN2cv5utils5trace7details6RegionD2Ev.exit unwind label %22

22:                                               ; preds = %21
  %23 = landingpad { ptr, i32 }
          catch ptr null
  %24 = extractvalue { ptr, i32 } %23, 0
  call void @__clang_call_terminate(ptr %24) #14
  unreachable

_ZN2cv5utils5trace7details6RegionD2Ev.exit:       ; preds = %18, %21
  ret void

25:                                               ; preds = %15
  %26 = landingpad { ptr, i32 }
          cleanup
  br label %29

27:                                               ; preds = %16
  %28 = landingpad { ptr, i32 }
          cleanup
  call void @_ZN2cv3MatD1Ev(ptr noundef nonnull align 8 dereferenceable(96) %8) #15
  br label %29

29:                                               ; preds = %27, %25
  %.pn = phi { ptr, i32 } [ %28, %27 ], [ %26, %25 ]
  call void @_ZN2cv4UMatD1Ev(ptr noundef nonnull align 8 dereferenceable(80) %7) #15
  br label %30

30:                                               ; preds = %29, %12
  %.pn10 = phi { ptr, i32 } [ %13, %12 ], [ %.pn, %29 ]
  call void @_ZN2cv5utils5trace7details6RegionD2Ev(ptr noundef nonnull align 8 dereferenceable(12) %6) #15
  resume { ptr, i32 } %.pn10
}